; Function Attrs: nounwind uwtable
define range(i32 -6, 1) i32 @arkLs_AccessMassMem(ptr noundef %0, ptr noundef %1, ptr noundef writeonly captures(none) %2) local_unnamed_addr #0 {
  %4 = getelementptr inbounds nuw i8, ptr %0, i64 536
  %5 = load ptr, ptr %4, align 8, !tbaa !75
  %6 = tail call ptr %5(ptr noundef %0) #13
  %7 = icmp eq ptr %6, null
  br i1 %7, label %8, label %9

8:                                                ; preds = %3
  tail call void (ptr, i32, i32, ptr, ptr, ptr, ...) @arkProcessError(ptr noundef nonnull %0, i32 noundef -6, i32 noundef 4109, ptr noundef %1, ptr noundef nonnull @.str, ptr noundef nonnull @.str.65) #13
  br label %10

9:                                                ; preds = %3
  store ptr %6, ptr %2, align 8, !tbaa !139
  br label %10

10:                                               ; preds = %9, %8
  %.0 = phi i32 [ -6, %8 ], [ 0, %9 ]
  ret i32 %.0
}